target datalayout = "e-m:e-p270:32:32-p271:32:32-p272:64:64-i64:64-i128:128-f80:128-n8:16:32:64-S128"
target triple = "x86_64-pc-linux-gnu"

%struct.evp_test_st = type { %struct.stanza_st, ptr, i32, ptr, ptr, ptr, ptr, ptr, ptr, i32 }
%struct.stanza_st = type { ptr, ptr, i32, i32, i32, i32, i32, i32, [150 x %struct.pair_st], ptr, [32768 x i8] }
%struct.pair_st = type { ptr, ptr }
%struct.ossl_param_st = type { ptr, i32, ptr, i64, i64 }
%struct.rand_data_st = type { ptr, ptr, i32, i32, i32, i32, ptr, ptr, ptr, [15 x %struct.rand_data_pass_st] }
%struct.rand_data_pass_st = type { ptr, ptr, ptr, ptr, ptr, ptr, ptr, ptr, ptr, ptr, i64, i64, i64, i64, i64, i64, i64, i64, i64, i64 }

@propquery = internal global ptr null, align 8
@libctx = internal global ptr null, align 8
@.str.29 = private unnamed_addr constant [27 x i8] c"../openssl/test/evp_test.c\00", align 1
@.str.74 = private unnamed_addr constant [39 x i8] c"rdata = OPENSSL_zalloc(sizeof(*rdata))\00", align 1
@.str.75 = private unnamed_addr constant [10 x i8] c"TEST-RAND\00", align 1
@.str.76 = private unnamed_addr constant [6 x i8] c"-fips\00", align 1
@.str.77 = private unnamed_addr constant [9 x i8] c"strength\00", align 1

; Function Attrs: nounwind uwtable
define internal i32 @rand_test_init(ptr noundef %0, ptr noundef %1) #0 {
  %3 = alloca i32, align 4
  %4 = alloca ptr, align 8
  %5 = alloca ptr, align 8
  %6 = alloca ptr, align 8
  %7 = alloca ptr, align 8
  %8 = alloca [2 x %struct.ossl_param_st], align 16
  %9 = alloca i32, align 4
  %10 = alloca i32, align 4
  %11 = alloca %struct.ossl_param_st, align 8
  store ptr %0, ptr %4, align 8, !tbaa !15
  store ptr %1, ptr %5, align 8, !tbaa !4
  call void @llvm.lifetime.start.p0(i64 8, ptr %6) #10
  call void @llvm.lifetime.start.p0(i64 8, ptr %7) #10
  call void @llvm.lifetime.start.p0(i64 80, ptr %8) #10
  call void @llvm.memset.p0.i64(ptr align 16 %8, i8 0, i64 80, i1 false)
  call void @llvm.lifetime.start.p0(i64 4, ptr %9) #10
  store i32 256, ptr %9, align 4, !tbaa !9
  %12 = call noalias ptr @CRYPTO_zalloc(i64 noundef 2456, ptr noundef @.str.29, i32 noundef 3433)
  store ptr %12, ptr %6, align 8, !tbaa !88
  %13 = call i32 @test_ptr(ptr noundef @.str.29, i32 noundef 3433, ptr noundef @.str.74, ptr noundef %12)
  %14 = icmp ne i32 %13, 0
  br i1 %14, label %16, label %15

15:                                               ; preds = %2
  store i32 0, ptr %3, align 4
  store i32 1, ptr %10, align 4
  br label %78

16:                                               ; preds = %2
  %17 = load ptr, ptr @libctx, align 8, !tbaa !17
  %18 = call ptr @EVP_RAND_fetch(ptr noundef %17, ptr noundef @.str.75, ptr noundef @.str.76)
  store ptr %18, ptr %7, align 8, !tbaa !90
  %19 = load ptr, ptr %7, align 8, !tbaa !90
  %20 = icmp eq ptr %19, null
  br i1 %20, label %21, label %22

21:                                               ; preds = %16
  br label %73

22:                                               ; preds = %16
  %23 = load ptr, ptr %7, align 8, !tbaa !90
  %24 = call ptr @EVP_RAND_CTX_new(ptr noundef %23, ptr noundef null)
  %25 = load ptr, ptr %6, align 8, !tbaa !88
  %26 = getelementptr inbounds nuw %struct.rand_data_st, ptr %25, i32 0, i32 1
  store ptr %24, ptr %26, align 8, !tbaa !92
  %27 = load ptr, ptr %7, align 8, !tbaa !90
  call void @EVP_RAND_free(ptr noundef %27)
  %28 = load ptr, ptr %6, align 8, !tbaa !88
  %29 = getelementptr inbounds nuw %struct.rand_data_st, ptr %28, i32 0, i32 1
  %30 = load ptr, ptr %29, align 8, !tbaa !92
  %31 = icmp eq ptr %30, null
  br i1 %31, label %32, label %33

32:                                               ; preds = %22
  br label %73

33:                                               ; preds = %22
  %34 = getelementptr inbounds [2 x %struct.ossl_param_st], ptr %8, i64 0, i64 0
  call void @llvm.lifetime.start.p0(i64 40, ptr %11) #10
  call void @OSSL_PARAM_construct_uint(ptr dead_on_unwind writable sret(%struct.ossl_param_st) align 8 %11, ptr noundef @.str.77, ptr noundef %9)
  call void @llvm.memcpy.p0.p0.i64(ptr align 16 %34, ptr align 8 %11, i64 40, i1 false), !tbaa.struct !96
  call void @llvm.lifetime.end.p0(i64 40, ptr %11) #10
  %35 = load ptr, ptr %6, align 8, !tbaa !88
  %36 = getelementptr inbounds nuw %struct.rand_data_st, ptr %35, i32 0, i32 1
  %37 = load ptr, ptr %36, align 8, !tbaa !92
  %38 = getelementptr inbounds [2 x %struct.ossl_param_st], ptr %8, i64 0, i64 0
  %39 = call i32 @EVP_RAND_CTX_set_params(ptr noundef %37, ptr noundef %38)
  %40 = icmp ne i32 %39, 0
  br i1 %40, label %42, label %41

41:                                               ; preds = %33
  br label %73

42:                                               ; preds = %33
  %43 = load ptr, ptr @libctx, align 8, !tbaa !17
  %44 = load ptr, ptr %5, align 8, !tbaa !4
  %45 = load ptr, ptr @propquery, align 8, !tbaa !4
  %46 = call ptr @EVP_RAND_fetch(ptr noundef %43, ptr noundef %44, ptr noundef %45)
  store ptr %46, ptr %7, align 8, !tbaa !90
  %47 = load ptr, ptr %7, align 8, !tbaa !90
  %48 = icmp eq ptr %47, null
  br i1 %48, label %49, label %50

49:                                               ; preds = %42
  br label %73

50:                                               ; preds = %42
  %51 = load ptr, ptr %7, align 8, !tbaa !90
  %52 = load ptr, ptr %6, align 8, !tbaa !88
  %53 = getelementptr inbounds nuw %struct.rand_data_st, ptr %52, i32 0, i32 1
  %54 = load ptr, ptr %53, align 8, !tbaa !92
  %55 = call ptr @EVP_RAND_CTX_new(ptr noundef %51, ptr noundef %54)
  %56 = load ptr, ptr %6, align 8, !tbaa !88
  %57 = getelementptr inbounds nuw %struct.rand_data_st, ptr %56, i32 0, i32 0
  store ptr %55, ptr %57, align 8, !tbaa !98
  %58 = load ptr, ptr %7, align 8, !tbaa !90
  call void @EVP_RAND_free(ptr noundef %58)
  %59 = load ptr, ptr %6, align 8, !tbaa !88
  %60 = getelementptr inbounds nuw %struct.rand_data_st, ptr %59, i32 0, i32 0
  %61 = load ptr, ptr %60, align 8, !tbaa !98
  %62 = icmp eq ptr %61, null
  br i1 %62, label %63, label %64

63:                                               ; preds = %50
  br label %73

64:                                               ; preds = %50
  %65 = call ptr @OPENSSL_sk_new_null()
  %66 = load ptr, ptr %6, align 8, !tbaa !88
  %67 = getelementptr inbounds nuw %struct.rand_data_st, ptr %66, i32 0, i32 8
  store ptr %65, ptr %67, align 8, !tbaa !99
  %68 = load ptr, ptr %6, align 8, !tbaa !88
  %69 = getelementptr inbounds nuw %struct.rand_data_st, ptr %68, i32 0, i32 2
  store i32 -1, ptr %69, align 8, !tbaa !100
  %70 = load ptr, ptr %6, align 8, !tbaa !88
  %71 = load ptr, ptr %4, align 8, !tbaa !15
  %72 = getelementptr inbounds nuw %struct.evp_test_st, ptr %71, i32 0, i32 8
  store ptr %70, ptr %72, align 8, !tbaa !66
  store i32 1, ptr %3, align 4
  store i32 1, ptr %10, align 4
  br label %78

73:                                               ; preds = %63, %49, %41, %32, %21
  %74 = load ptr, ptr %6, align 8, !tbaa !88
  %75 = getelementptr inbounds nuw %struct.rand_data_st, ptr %74, i32 0, i32 1
  %76 = load ptr, ptr %75, align 8, !tbaa !92
  call void @EVP_RAND_CTX_free(ptr noundef %76)
  %77 = load ptr, ptr %6, align 8, !tbaa !88
  call void @CRYPTO_free(ptr noundef %77, ptr noundef @.str.29, i32 noundef 3463)
  store i32 0, ptr %3, align 4
  store i32 1, ptr %10, align 4
  br label %78

78:                                               ; preds = %73, %64, %15
  call void @llvm.lifetime.end.p0(i64 4, ptr %9) #10
  call void @llvm.lifetime.end.p0(i64 80, ptr %8) #10
  call void @llvm.lifetime.end.p0(i64 8, ptr %7) #10
  call void @llvm.lifetime.end.p0(i64 8, ptr %6) #10
  %79 = load i32, ptr %3, align 4
  ret i32 %79
}