; Function Attrs: nounwind uwtable
define internal range(i32 0, 2) i32 @rand_test_init(ptr noundef writeonly captures(none) %0, ptr noundef %1) #1 {
  %3 = alloca [2 x %struct.ossl_param_st], align 16
  %4 = alloca i32, align 4
  call void @llvm.lifetime.start.p0(i64 80, ptr nonnull %3) #10
  call void @llvm.memset.p0.i64(ptr noundef nonnull align 16 dereferenceable(80) %3, i8 0, i64 80, i1 false)
  call void @llvm.lifetime.start.p0(i64 4, ptr nonnull %4) #10
  store i32 256, ptr %4, align 4, !tbaa !4
  %5 = tail call noalias ptr @CRYPTO_zalloc(i64 noundef 2456, ptr noundef nonnull @.str.29, i32 noundef 3433) #10
  %6 = tail call i32 @test_ptr(ptr noundef nonnull @.str.29, i32 noundef 3433, ptr noundef nonnull @.str.74, ptr noundef %5) #10
  %.not = icmp eq i32 %6, 0
  br i1 %.not, label %37, label %7

7:                                                ; preds = %2
  %8 = load ptr, ptr @libctx, align 8, !tbaa !13
  %9 = tail call ptr @EVP_RAND_fetch(ptr noundef %8, ptr noundef nonnull @.str.75, ptr noundef nonnull @.str.76) #10
  %10 = icmp eq ptr %9, null
  br i1 %10, label %34, label %11

11:                                               ; preds = %7
  %12 = tail call ptr @EVP_RAND_CTX_new(ptr noundef nonnull %9, ptr noundef null) #10
  %13 = getelementptr inbounds nuw i8, ptr %5, i64 8
  store ptr %12, ptr %13, align 8, !tbaa !72
  tail call void @EVP_RAND_free(ptr noundef nonnull %9) #10
  %14 = load ptr, ptr %13, align 8, !tbaa !72
  %15 = icmp eq ptr %14, null
  br i1 %15, label %34, label %16

16:                                               ; preds = %11
  call void @OSSL_PARAM_construct_uint(ptr dead_on_unwind nonnull writable sret(%struct.ossl_param_st) align 8 %3, ptr noundef nonnull @.str.77, ptr noundef nonnull %4) #10
  %17 = load ptr, ptr %13, align 8, !tbaa !72
  %18 = call i32 @EVP_RAND_CTX_set_params(ptr noundef %17, ptr noundef nonnull %3) #10
  %.not21 = icmp eq i32 %18, 0
  br i1 %.not21, label %34, label %19

19:                                               ; preds = %16
  %20 = load ptr, ptr @libctx, align 8, !tbaa !13
  %21 = load ptr, ptr @propquery, align 8, !tbaa !10
  %22 = call ptr @EVP_RAND_fetch(ptr noundef %20, ptr noundef %1, ptr noundef %21) #10
  %23 = icmp eq ptr %22, null
  br i1 %23, label %34, label %24

24:                                               ; preds = %19
  %25 = load ptr, ptr %13, align 8, !tbaa !72
  %26 = call ptr @EVP_RAND_CTX_new(ptr noundef nonnull %22, ptr noundef %25) #10
  store ptr %26, ptr %5, align 8, !tbaa !76
  call void @EVP_RAND_free(ptr noundef nonnull %22) #10
  %27 = load ptr, ptr %5, align 8, !tbaa !76
  %28 = icmp eq ptr %27, null
  br i1 %28, label %34, label %29

29:                                               ; preds = %24
  %30 = call ptr @OPENSSL_sk_new_null() #10
  %31 = getelementptr inbounds nuw i8, ptr %5, i64 48
  store ptr %30, ptr %31, align 8, !tbaa !77
  %32 = getelementptr inbounds nuw i8, ptr %5, i64 16
  store i32 -1, ptr %32, align 8, !tbaa !78
  %33 = getelementptr inbounds nuw i8, ptr %0, i64 35272
  store ptr %5, ptr %33, align 8, !tbaa !20
  br label %37

34:                                               ; preds = %24, %19, %16, %11, %7
  %35 = getelementptr inbounds nuw i8, ptr %5, i64 8
  %36 = load ptr, ptr %35, align 8, !tbaa !72
  call void @EVP_RAND_CTX_free(ptr noundef %36) #10
  call void @CRYPTO_free(ptr noundef %5, ptr noundef nonnull @.str.29, i32 noundef 3463) #10
  br label %37

37:                                               ; preds = %2, %34, %29
  %.0 = phi i32 [ 0, %34 ], [ 1, %29 ], [ 0, %2 ]
  call void @llvm.lifetime.end.p0(i64 4, ptr nonnull %4) #10
  call void @llvm.lifetime.end.p0(i64 80, ptr nonnull %3) #10
  ret i32 %.0
}